target datalayout = "e-m:e-p270:32:32-p271:32:32-p272:64:64-i64:64-i128:128-f80:128-n8:16:32:64-S128"
target triple = "x86_64-pc-linux-gnu"

%struct.total_data = type { i64, i64 }

; Function Attrs: nounwind sspstrong uwtable
define internal void @total_i(i64 noundef %0, ptr noundef %1) #0 {
  %3 = alloca i64, align 8
  %4 = alloca ptr, align 8
  %5 = alloca ptr, align 8
  store i64 %0, ptr %3, align 8, !tbaa !6
  store ptr %1, ptr %4, align 8, !tbaa !46
  call void @llvm.lifetime.start.p0(i64 8, ptr %5) #15
  %6 = load ptr, ptr %4, align 8, !tbaa !46
  store ptr %6, ptr %5, align 8, !tbaa !50
  %7 = load i64, ptr %3, align 8, !tbaa !6
  %8 = call i32 @rb_objspace_internal_object_p(i64 noundef %7)
  %9 = icmp ne i32 %8, 0
  br i1 %9, label %30, label %10

10:                                               ; preds = %2
  %11 = load ptr, ptr %5, align 8, !tbaa !50
  %12 = getelementptr inbounds nuw %struct.total_data, ptr %11, i32 0, i32 1
  %13 = load i64, ptr %12, align 8, !tbaa !52
  %14 = icmp eq i64 %13, 0
  br i1 %14, label %22, label %15

15:                                               ; preds = %10
  %16 = load i64, ptr %3, align 8, !tbaa !6
  %17 = load ptr, ptr %5, align 8, !tbaa !50
  %18 = getelementptr inbounds nuw %struct.total_data, ptr %17, i32 0, i32 1
  %19 = load i64, ptr %18, align 8, !tbaa !52
  %20 = call i64 @rb_obj_is_kind_of(i64 noundef %16, i64 noundef %19)
  %21 = icmp ne i64 %20, 0
  br i1 %21, label %22, label %29

22:                                               ; preds = %15, %10
  %23 = load i64, ptr %3, align 8, !tbaa !6
  %24 = call i64 @rb_obj_memsize_of(i64 noundef %23)
  %25 = load ptr, ptr %5, align 8, !tbaa !50
  %26 = getelementptr inbounds nuw %struct.total_data, ptr %25, i32 0, i32 0
  %27 = load i64, ptr %26, align 8, !tbaa !15
  %28 = add i64 %27, %24
  store i64 %28, ptr %26, align 8, !tbaa !15
  br label %29

29:                                               ; preds = %22, %15
  br label %30

30:                                               ; preds = %29, %2
  call void @llvm.lifetime.end.p0(i64 8, ptr %5) #15
  ret void
}