; Function Attrs: nounwind sspstrong uwtable
define internal void @total_i(i64 noundef %0, ptr noundef captures(none) %1) #0 {
  %3 = tail call i32 @rb_objspace_internal_object_p(i64 noundef %0) #7
  %.not = icmp eq i32 %3, 0
  br i1 %.not, label %4, label %14

4:                                                ; preds = %2
  %5 = getelementptr inbounds nuw i8, ptr %1, i64 8
  %6 = load i64, ptr %5, align 8, !tbaa !36
  %7 = icmp eq i64 %6, 0
  br i1 %7, label %10, label %8

8:                                                ; preds = %4
  %9 = tail call i64 @rb_obj_is_kind_of(i64 noundef %0, i64 noundef %6) #7
  %.not6 = icmp eq i64 %9, 0
  br i1 %.not6, label %14, label %10

10:                                               ; preds = %8, %4
  %11 = tail call i64 @rb_obj_memsize_of(i64 noundef %0) #7
  %12 = load i64, ptr %1, align 8, !tbaa !14
  %13 = add i64 %12, %11
  store i64 %13, ptr %1, align 8, !tbaa !14
  br label %14

14:                                               ; preds = %8, %10, %2
  ret void
}